target datalayout = "e-m:e-p270:32:32-p271:32:32-p272:64:64-i64:64-i128:128-f80:128-n8:16:32:64-S128"
target triple = "x86_64-pc-linux-gnu"

%struct.dt_pthread_mutex_t = type { %union.pthread_mutex_t }
%union.pthread_mutex_t = type { %struct.__pthread_mutex_s }
%struct.__pthread_mutex_s = type { i32, i32, i32, i32, i32, i16, i16, %struct.__pthread_internal_list }
%struct.__pthread_internal_list = type { ptr, ptr }
%struct.dt_dev_pixelpipe_t = type { %struct.dt_dev_pixelpipe_cache_t, i32, i64, ptr, i32, i32, float, i32, i32, [12 x i8], %struct.dt_iop_buffer_dsc_t, ptr, ptr, ptr, ptr, i32, i32, i32, i32, ptr, i64, i32, i32, float, float, float, i64, %struct.dt_pthread_mutex_t, %struct.dt_pthread_mutex_t, %struct.dt_pthread_mutex_t, i32, i32, i32, %struct.dt_dev_detail_mask_t, i32, i32, i32, i32, i32, i32, i32, i32, i32, i32, i32, i32, i32, i32, [8 x i8], %struct.dt_image_t, i32, ptr, i32, ptr, ptr, ptr, i32, ptr, i64, [8 x i8] }
%struct.dt_dev_pixelpipe_cache_t = type { i32, i64, i64, ptr, ptr, ptr, ptr, ptr, ptr, i64, i32, i64, i64, i32, i32, i32 }
%struct.dt_iop_buffer_dsc_t = type { i32, i32, i32, [6 x [6 x i8]], %struct.anon, [12 x i8], %struct.anon.0, [4 x float], i32, [12 x i8] }
%struct.anon = type { i16, i16 }
%struct.anon.0 = type { i32, [12 x i8], [4 x float] }
%struct.dt_dev_detail_mask_t = type { %struct.dt_iop_roi_t, i64, ptr }
%struct.dt_iop_roi_t = type { i32, i32, i32, i32, float }
%struct.dt_image_t = type { i32, i32, float, float, float, float, float, float, float, [64 x i8], [64 x i8], [128 x i8], [64 x i8], [64 x i8], [64 x i8], [64 x i8], i64, i32, %union.dt_image_correction_data_t, [64 x i8], [64 x i8], [64 x i8], [128 x i8], i32, [256 x i8], i32, i32, i32, i32, i32, i32, i32, i32, i32, i32, float, i32, i32, i32, i32, i32, i32, i64, i64, i64, i64, i32, [12 x i8], %struct.dt_iop_buffer_dsc_t, [9 x float], ptr, i32, i32, %struct.dt_image_raw_parameters_t, %struct.dt_image_geoloc_t, %struct._color_harmony_t, i16, [4 x i16], i32, i32, float, float, [4 x float], [4 x [3 x float]], [4 x float], ptr, ptr, i32, i32, [8 x i8] }
%union.dt_image_correction_data_t = type { %struct.anon.2 }
%struct.anon.2 = type { i32, float, [11 x float], [11 x float], [11 x float], [11 x float], [11 x float] }
%struct.dt_image_raw_parameters_t = type { i32 }
%struct.dt_image_geoloc_t = type { double, double, double }
%struct._color_harmony_t = type { i32, i32, i32 }

; Function Attrs: nounwind uwtable
define void @dt_dev_clear_scharr_mask(ptr noundef %0) #0 {
  %2 = alloca ptr, align 8
  store ptr %0, ptr %2, align 8, !tbaa !6
  %3 = load ptr, ptr %2, align 8, !tbaa !6
  %4 = getelementptr inbounds nuw %struct.dt_dev_pixelpipe_t, ptr %3, i32 0, i32 33
  %5 = getelementptr inbounds nuw %struct.dt_dev_detail_mask_t, ptr %4, i32 0, i32 2
  %6 = load ptr, ptr %5, align 8, !tbaa !205
  %7 = icmp ne ptr %6, null
  br i1 %7, label %8, label %13

8:                                                ; preds = %1
  %9 = load ptr, ptr %2, align 8, !tbaa !6
  %10 = getelementptr inbounds nuw %struct.dt_dev_pixelpipe_t, ptr %9, i32 0, i32 33
  %11 = getelementptr inbounds nuw %struct.dt_dev_detail_mask_t, ptr %10, i32 0, i32 2
  %12 = load ptr, ptr %11, align 8, !tbaa !205
  call void @free(ptr noundef %12) #17
  br label %13

13:                                               ; preds = %8, %1
  %14 = load ptr, ptr %2, align 8, !tbaa !6
  %15 = getelementptr inbounds nuw %struct.dt_dev_pixelpipe_t, ptr %14, i32 0, i32 33
  call void @llvm.memset.p0.i64(ptr align 8 %15, i8 0, i64 40, i1 false)
  ret void
}