; Function Attrs: mustprogress nounwind willreturn uwtable
define void @dt_dev_clear_scharr_mask(ptr noundef captures(none) initializes((536, 568)) %0) local_unnamed_addr #13 {
  %2 = getelementptr inbounds nuw i8, ptr %0, i64 568
  %3 = load ptr, ptr %2, align 8, !tbaa !172
  %.not = icmp eq ptr %3, null
  br i1 %.not, label %5, label %4

4:                                                ; preds = %1
  tail call void @free(ptr noundef nonnull %3) #27
  br label %5

5:                                                ; preds = %4, %1
  %6 = getelementptr inbounds nuw i8, ptr %0, i64 536
  tail call void @llvm.memset.p0.i64(ptr noundef nonnull align 8 dereferenceable(40) %6, i8 0, i64 40, i1 false)
  ret void
}